; Function Attrs: nofree nounwind uwtable
define dso_local void @geod_direct(ptr noundef readonly captures(none) %0, double noundef %1, double noundef %2, double noundef %3, double noundef %4, ptr noundef %5, ptr noundef %6, ptr noundef %7) local_unnamed_addr #3 {
  %9 = alloca %struct.geod_geodesicline, align 8
  call void @llvm.lifetime.start.p0(i64 512, ptr nonnull %9) #13
  %.not.i = icmp eq ptr %5, null
  %.not23.i = icmp eq ptr %6, null
  %10 = select i1 %.not23.i, i32 0, i32 264
  %.not24.i = icmp eq ptr %7, null
  %11 = select i1 %.not24.i, i32 0, i32 512
  %12 = select i1 %.not.i, i32 2051, i32 2179
  %13 = or disjoint i32 %10, %12
  %14 = or disjoint i32 %13, %11
  call void @geod_lineinit(ptr noundef nonnull %9, ptr noundef readonly %0, double noundef %1, double noundef %2, double noundef %3, i32 noundef %14)
  %15 = call double @geod_genposition(ptr noundef nonnull %9, i32 noundef 0, double noundef %4, ptr noundef %5, ptr noundef %6, ptr noundef %7, ptr noundef null, ptr noundef null, ptr noundef null, ptr noundef null, ptr noundef null)
  call void @llvm.lifetime.end.p0(i64 512, ptr nonnull %9) #13
  ret void
}